; Function Attrs: mustprogress nofree norecurse nosync nounwind willreturn memory(read, inaccessiblemem: none) uwtable
define i32 @Pdr_ObjRegNum(ptr noundef readonly captures(none) %0, i32 noundef %1, i32 noundef %2) local_unnamed_addr #3 {
  %4 = load ptr, ptr %0, align 8, !tbaa !68
  %5 = getelementptr inbounds nuw i8, ptr %4, i64 40
  %6 = load i32, ptr %5, align 8, !tbaa !69
  %.not = icmp eq i32 %6, 0
  br i1 %.not, label %19, label %7

7:                                                ; preds = %3
  %8 = getelementptr inbounds nuw i8, ptr %0, i64 32
  %9 = load ptr, ptr %8, align 8, !tbaa !71
  %10 = getelementptr inbounds nuw i8, ptr %9, i64 8
  %11 = load i32, ptr %10, align 8, !tbaa !73
  %.not.i = icmp slt i32 %2, %11
  br i1 %.not.i, label %12, label %Pdr_ObjRegNum1.exit

12:                                               ; preds = %7
  %13 = getelementptr inbounds nuw i8, ptr %0, i64 40
  %14 = load ptr, ptr %13, align 8, !tbaa !74
  %15 = getelementptr i8, ptr %14, i64 8
  %.val.i = load ptr, ptr %15, align 8, !tbaa !30
  %16 = sext i32 %2 to i64
  %17 = getelementptr inbounds i32, ptr %.val.i, i64 %16
  %18 = load i32, ptr %17, align 4, !tbaa !31
  br label %Pdr_ObjRegNum1.exit

19:                                               ; preds = %3
  %20 = getelementptr i8, ptr %0, i64 72
  %.val12.i = load ptr, ptr %20, align 8, !tbaa !33
  %21 = sext i32 %1 to i64
  %22 = getelementptr inbounds ptr, ptr %.val12.i, i64 %21
  %23 = load ptr, ptr %22, align 8, !tbaa !34
  %24 = getelementptr i8, ptr %23, i64 8
  %.val.i7 = load ptr, ptr %24, align 8, !tbaa !30
  %25 = sext i32 %2 to i64
  %26 = getelementptr inbounds i32, ptr %.val.i7, i64 %25
  %27 = load i32, ptr %26, align 4, !tbaa !31
  %28 = icmp eq i32 %27, -1
  br i1 %28, label %Pdr_ObjRegNum1.exit, label %29

29:                                               ; preds = %19
  %30 = getelementptr inbounds nuw i8, ptr %0, i64 8
  %31 = load ptr, ptr %30, align 8, !tbaa !35
  %32 = getelementptr i8, ptr %31, i64 32
  %.val14.i = load ptr, ptr %32, align 8, !tbaa !64
  %.not.i.i = icmp eq ptr %.val14.i, null
  br i1 %.not.i.i, label %Aig_ManObj.exit.i, label %33

33:                                               ; preds = %29
  %34 = getelementptr i8, ptr %.val14.i, i64 8
  %.val.i.i = load ptr, ptr %34, align 8, !tbaa !33
  %35 = sext i32 %27 to i64
  %36 = getelementptr inbounds ptr, ptr %.val.i.i, i64 %35
  %37 = load ptr, ptr %36, align 8, !tbaa !34
  br label %Aig_ManObj.exit.i

Aig_ManObj.exit.i:                                ; preds = %33, %29
  %38 = phi ptr [ %37, %33 ], [ null, %29 ]
  %39 = getelementptr i8, ptr %38, i64 24
  %.val3.i.i = load i64, ptr %39, align 8
  %40 = and i64 %.val3.i.i, 7
  %.not.i16.i = icmp eq i64 %40, 3
  br i1 %.not.i16.i, label %Saig_ObjIsLi.exit.i, label %Pdr_ObjRegNum1.exit

Saig_ObjIsLi.exit.i:                              ; preds = %Aig_ManObj.exit.i
  %.val.i17.i = load i32, ptr %38, align 8, !tbaa !36
  %41 = getelementptr i8, ptr %31, i64 112
  %.val4.i.i = load i32, ptr %41, align 8, !tbaa !75
  %.not19.i = icmp slt i32 %.val.i17.i, %.val4.i.i
  %42 = sub nsw i32 %.val.i17.i, %.val4.i.i
  %spec.select.i = select i1 %.not19.i, i32 -1, i32 %42
  br label %Pdr_ObjRegNum1.exit

Pdr_ObjRegNum1.exit:                              ; preds = %Saig_ObjIsLi.exit.i, %Aig_ManObj.exit.i, %19, %12, %7
  %.0 = phi i32 [ %18, %12 ], [ -1, %7 ], [ -1, %19 ], [ -1, %Aig_ManObj.exit.i ], [ %spec.select.i, %Saig_ObjIsLi.exit.i ]
  ret i32 %.0
}